target datalayout = "e-m:e-p270:32:32-p271:32:32-p272:64:64-i64:64-i128:128-f80:128-n8:16:32:64-S128"
target triple = "x86_64-pc-linux-gnu"

%struct.SDL_Rect = type { i32, i32, i32, i32 }
%struct.SDL_AtomicInt = type { i32 }
%struct.SDL_VideoData = type { i8, ptr, i32, ptr, ptr, ptr, ptr, i32, %struct.anon.1, ptr, ptr, ptr, ptr, ptr, ptr, ptr, ptr, ptr, ptr, ptr, ptr, ptr, ptr, ptr, ptr, ptr, ptr, ptr, ptr, ptr, ptr, %struct.wl_list, ptr, ptr, ptr, ptr, i32, i32, i8, i8 }
%struct.anon.1 = type { ptr }
%struct.wl_list = type { ptr, ptr }
%struct.SDL_WaylandSeat = type { ptr, ptr, ptr, ptr, ptr, %struct.wl_list, i32, i32, %struct.anon.2, %struct.anon.4, %struct.anon.7, %struct.anon.8, %struct.anon.9 }
%struct.anon.2 = type { ptr, ptr, ptr, ptr, ptr, %struct.SDL_WaylandKeyboardRepeat, i64, i16, i16, i32, i8, %struct.anon.3 }
%struct.SDL_WaylandKeyboardRepeat = type { i32, i32, i32, i8, i8, i32, i64, i64, i64, i32, [8 x i8] }
%struct.anon.3 = type { ptr, ptr, ptr, ptr, i32, i32, i32, i32, i32, i32, i32, i32, i32, i32, i32 }
%struct.anon.4 = type { ptr, ptr, ptr, ptr, ptr, ptr, ptr, ptr, i64, i32, i32, %struct.SDL_Point, i32, %struct.anon.5, %struct.anon.6 }
%struct.SDL_Point = type { i32, i32 }
%struct.anon.5 = type { i32, float, i32, float, i64, i32 }
%struct.anon.6 = type { ptr, ptr, ptr, i64, i64, i32 }
%struct.anon.7 = type { ptr, ptr, i64, %struct.wl_list }
%struct.anon.8 = type { ptr, %struct.SDL_Rect, i8, i8 }
%struct.anon.9 = type { ptr, %struct.wl_list }
%struct.SDL_WindowData = type { ptr, ptr, ptr, ptr, ptr, ptr, ptr, %union.anon, i32, i32, i32, i32, ptr, ptr, ptr, ptr, ptr, ptr, ptr, ptr, ptr, ptr, ptr, ptr, ptr, ptr, %struct.SDL_AtomicInt, ptr, i32, ptr, double, ptr, i32, i32, i32, i32, %struct.anon.14, %struct.anon.15, %struct.anon.16, %struct.anon.17, %struct.anon.18, %struct.anon.19, %struct.anon.20, i32, i32, i32, i64, i32, i32, i8, i8, i8, i8, i8, i8, i8, i8, i8, i8, i8, i8, i8, i8, i32, %struct.wl_list }
%union.anon = type { %struct.anon.10 }
%struct.anon.10 = type { ptr, %union.anon.11, i8 }
%union.anon.11 = type { %struct.anon.13 }
%struct.anon.13 = type { ptr, ptr }
%struct.anon.14 = type { double, double }
%struct.anon.15 = type { i32, i32, i32, i32 }
%struct.anon.16 = type { i32, i32, i32, i32 }
%struct.anon.17 = type { i32, i32 }
%struct.anon.18 = type { i32, i32 }
%struct.anon.19 = type { i32, i32 }
%struct.anon.20 = type { i32, i32, i8 }
%struct.SDL_Window = type { i32, ptr, ptr, i32, i32, i32, i32, i32, i32, i32, i32, float, float, i32, i32, i64, i64, float, i8, i8, i32, i32, %struct.SDL_Rect, %struct.SDL_Rect, %struct.SDL_Rect, i8, i8, i8, %struct.SDL_DisplayMode, %struct.SDL_DisplayMode, %struct.SDL_HDROutputProperties, float, ptr, i8, i8, i8, i8, i8, i8, i8, i8, i8, i32, i32, i32, i32, %struct.SDL_Rect, i32, i8, %struct.SDL_Rect, i32, %struct.SDL_Rect, ptr, ptr, i32, float, i32, i32, ptr, ptr, ptr, ptr, ptr, ptr, ptr, ptr, ptr }
%struct.SDL_DisplayMode = type { i32, i32, i32, i32, float, float, i32, i32, ptr }
%struct.SDL_HDROutputProperties = type { float, float }

@WAYLAND_xkb_compose_state_reset = external global ptr, align 8
@WAYLAND_wl_proxy_marshal_flags = external global ptr, align 8
@WAYLAND_wl_proxy_get_version = external global ptr, align 8

; Function Attrs: inlinehint nounwind uwtable
define internal void @zwp_text_input_v3_disable(ptr noundef %0) #3 {
  %2 = alloca ptr, align 8
  store ptr %0, ptr %2, align 8
  %3 = load ptr, ptr @WAYLAND_wl_proxy_marshal_flags, align 8
  %4 = load ptr, ptr %2, align 8
  %5 = load ptr, ptr @WAYLAND_wl_proxy_get_version, align 8
  %6 = load ptr, ptr %2, align 8
  %7 = call i32 %5(ptr noundef %6)
  %8 = call ptr (ptr, i32, ptr, i32, i32, ...) %3(ptr noundef %4, i32 noundef 2, ptr noundef null, i32 noundef %7, i32 noundef 0)
  ret void
}

; Function Attrs: inlinehint nounwind uwtable
define internal void @zwp_text_input_v3_commit(ptr noundef %0) #3 {
  %2 = alloca ptr, align 8
  store ptr %0, ptr %2, align 8
  %3 = load ptr, ptr @WAYLAND_wl_proxy_marshal_flags, align 8
  %4 = load ptr, ptr %2, align 8
  %5 = load ptr, ptr @WAYLAND_wl_proxy_get_version, align 8
  %6 = load ptr, ptr %2, align 8
  %7 = call i32 %5(ptr noundef %6)
  %8 = call ptr (ptr, i32, ptr, i32, i32, ...) %3(ptr noundef %4, i32 noundef 7, ptr noundef null, i32 noundef %7, i32 noundef 0)
  ret void
}

; Function Attrs: inlinehint nounwind uwtable
define internal void @zwp_text_input_v3_set_cursor_rectangle(ptr noundef %0, i32 noundef %1, i32 noundef %2, i32 noundef %3, i32 noundef %4) #3 {
  %6 = alloca ptr, align 8
  %7 = alloca i32, align 4
  %8 = alloca i32, align 4
  %9 = alloca i32, align 4
  %10 = alloca i32, align 4
  store ptr %0, ptr %6, align 8
  store i32 %1, ptr %7, align 4
  store i32 %2, ptr %8, align 4
  store i32 %3, ptr %9, align 4
  store i32 %4, ptr %10, align 4
  %11 = load ptr, ptr @WAYLAND_wl_proxy_marshal_flags, align 8
  %12 = load ptr, ptr %6, align 8
  %13 = load ptr, ptr @WAYLAND_wl_proxy_get_version, align 8
  %14 = load ptr, ptr %6, align 8
  %15 = call i32 %13(ptr noundef %14)
  %16 = load i32, ptr %7, align 4
  %17 = load i32, ptr %8, align 4
  %18 = load i32, ptr %9, align 4
  %19 = load i32, ptr %10, align 4
  %20 = call ptr (ptr, i32, ptr, i32, i32, ...) %11(ptr noundef %12, i32 noundef 6, ptr noundef null, i32 noundef %15, i32 noundef 0, i32 noundef %16, i32 noundef %17, i32 noundef %18, i32 noundef %19)
  ret void
}

; Function Attrs: alwaysinline nounwind uwtable
define internal zeroext i1 @SDL_RectEmpty(ptr noundef %0) #4 {
  %2 = alloca ptr, align 8
  store ptr %0, ptr %2, align 8
  %3 = load ptr, ptr %2, align 8
  %4 = icmp ne ptr %3, null
  br i1 %4, label %5, label %15

5:                                                ; preds = %1
  %6 = load ptr, ptr %2, align 8
  %7 = getelementptr inbounds nuw %struct.SDL_Rect, ptr %6, i32 0, i32 2
  %8 = load i32, ptr %7, align 4
  %9 = icmp sle i32 %8, 0
  br i1 %9, label %15, label %10

10:                                               ; preds = %5
  %11 = load ptr, ptr %2, align 8
  %12 = getelementptr inbounds nuw %struct.SDL_Rect, ptr %11, i32 0, i32 3
  %13 = load i32, ptr %12, align 4
  %14 = icmp sle i32 %13, 0
  br label %15

15:                                               ; preds = %10, %5, %1
  %16 = phi i1 [ true, %5 ], [ true, %1 ], [ %14, %10 ]
  %17 = select i1 %16, i32 1, i32 0
  %18 = icmp ne i32 %17, 0
  ret i1 %18
}

; Function Attrs: inlinehint nounwind uwtable
define internal void @zwp_text_input_v3_set_content_type(ptr noundef %0, i32 noundef %1, i32 noundef %2) #3 {
  %4 = alloca ptr, align 8
  %5 = alloca i32, align 4
  %6 = alloca i32, align 4
  store ptr %0, ptr %4, align 8
  store i32 %1, ptr %5, align 4
  store i32 %2, ptr %6, align 4
  %7 = load ptr, ptr @WAYLAND_wl_proxy_marshal_flags, align 8
  %8 = load ptr, ptr %4, align 8
  %9 = load ptr, ptr @WAYLAND_wl_proxy_get_version, align 8
  %10 = load ptr, ptr %4, align 8
  %11 = call i32 %9(ptr noundef %10)
  %12 = load i32, ptr %5, align 4
  %13 = load i32, ptr %6, align 4
  %14 = call ptr (ptr, i32, ptr, i32, i32, ...) %7(ptr noundef %8, i32 noundef 5, ptr noundef null, i32 noundef %11, i32 noundef 0, i32 noundef %12, i32 noundef %13)
  ret void
}

; Function Attrs: inlinehint nounwind uwtable
define internal void @zwp_text_input_v3_enable(ptr noundef %0) #3 {
  %2 = alloca ptr, align 8
  store ptr %0, ptr %2, align 8
  %3 = load ptr, ptr @WAYLAND_wl_proxy_marshal_flags, align 8
  %4 = load ptr, ptr %2, align 8
  %5 = load ptr, ptr @WAYLAND_wl_proxy_get_version, align 8
  %6 = load ptr, ptr %2, align 8
  %7 = call i32 %5(ptr noundef %6)
  %8 = call ptr (ptr, i32, ptr, i32, i32, ...) %3(ptr noundef %4, i32 noundef 1, ptr noundef null, i32 noundef %7, i32 noundef 0)
  ret void
}

; Function Attrs: nounwind uwtable
define hidden void @Wayland_UpdateTextInput(ptr noundef %0) #0 {
  %2 = alloca ptr, align 8
  %3 = alloca ptr, align 8
  %4 = alloca ptr, align 8
  store ptr %0, ptr %2, align 8
  call void @llvm.lifetime.start.p0(i64 8, ptr %3) #7
  store ptr null, ptr %3, align 8
  %5 = load ptr, ptr %2, align 8
  %6 = getelementptr inbounds nuw %struct.SDL_VideoData, ptr %5, i32 0, i32 18
  %7 = load ptr, ptr %6, align 8
  %8 = icmp ne ptr %7, null
  br i1 %8, label %9, label %172

9:                                                ; preds = %1
  %10 = load ptr, ptr %2, align 8
  %11 = getelementptr inbounds nuw %struct.SDL_VideoData, ptr %10, i32 0, i32 31
  %12 = getelementptr inbounds nuw %struct.wl_list, ptr %11, i32 0, i32 1
  %13 = load ptr, ptr %12, align 8
  %14 = getelementptr inbounds i8, ptr %13, i64 -40
  store ptr %14, ptr %3, align 8
  br label %15

15:                                               ; preds = %165, %9
  %16 = load ptr, ptr %3, align 8
  %17 = getelementptr inbounds nuw %struct.SDL_WaylandSeat, ptr %16, i32 0, i32 5
  %18 = load ptr, ptr %2, align 8
  %19 = getelementptr inbounds nuw %struct.SDL_VideoData, ptr %18, i32 0, i32 31
  %20 = icmp ne ptr %17, %19
  br i1 %20, label %21, label %171

21:                                               ; preds = %15
  call void @llvm.lifetime.start.p0(i64 8, ptr %4) #7
  %22 = load ptr, ptr %3, align 8
  %23 = getelementptr inbounds nuw %struct.SDL_WaylandSeat, ptr %22, i32 0, i32 8
  %24 = getelementptr inbounds nuw %struct.anon.2, ptr %23, i32 0, i32 3
  %25 = load ptr, ptr %24, align 8
  store ptr %25, ptr %4, align 8
  %26 = load ptr, ptr %3, align 8
  %27 = getelementptr inbounds nuw %struct.SDL_WaylandSeat, ptr %26, i32 0, i32 11
  %28 = getelementptr inbounds nuw %struct.anon.8, ptr %27, i32 0, i32 0
  %29 = load ptr, ptr %28, align 8
  %30 = icmp ne ptr %29, null
  br i1 %30, label %31, label %164

31:                                               ; preds = %21
  %32 = load ptr, ptr %4, align 8
  %33 = icmp ne ptr %32, null
  br i1 %33, label %34, label %127

34:                                               ; preds = %31
  %35 = load ptr, ptr %4, align 8
  %36 = getelementptr inbounds nuw %struct.SDL_WindowData, ptr %35, i32 0, i32 42
  %37 = getelementptr inbounds nuw %struct.anon.20, ptr %36, i32 0, i32 2
  %38 = load i8, ptr %37, align 8, !range !3, !noundef !4
  %39 = trunc i8 %38 to i1
  br i1 %39, label %40, label %127

40:                                               ; preds = %34
  %41 = load ptr, ptr %3, align 8
  %42 = getelementptr inbounds nuw %struct.SDL_WaylandSeat, ptr %41, i32 0, i32 11
  %43 = getelementptr inbounds nuw %struct.anon.8, ptr %42, i32 0, i32 2
  %44 = load i8, ptr %43, align 8, !range !3, !noundef !4
  %45 = trunc i8 %44 to i1
  br i1 %45, label %126, label %46

46:                                               ; preds = %40
  %47 = load ptr, ptr %3, align 8
  %48 = getelementptr inbounds nuw %struct.SDL_WaylandSeat, ptr %47, i32 0, i32 11
  %49 = getelementptr inbounds nuw %struct.anon.8, ptr %48, i32 0, i32 2
  store i8 1, ptr %49, align 8
  %50 = load ptr, ptr %3, align 8
  %51 = getelementptr inbounds nuw %struct.SDL_WaylandSeat, ptr %50, i32 0, i32 11
  %52 = getelementptr inbounds nuw %struct.anon.8, ptr %51, i32 0, i32 0
  %53 = load ptr, ptr %52, align 8
  call void @zwp_text_input_v3_enable(ptr noundef %53)
  %54 = load ptr, ptr %3, align 8
  %55 = getelementptr inbounds nuw %struct.SDL_WaylandSeat, ptr %54, i32 0, i32 11
  %56 = getelementptr inbounds nuw %struct.anon.8, ptr %55, i32 0, i32 0
  %57 = load ptr, ptr %56, align 8
  %58 = load ptr, ptr %4, align 8
  %59 = getelementptr inbounds nuw %struct.SDL_WindowData, ptr %58, i32 0, i32 42
  %60 = getelementptr inbounds nuw %struct.anon.20, ptr %59, i32 0, i32 0
  %61 = load i32, ptr %60, align 8
  %62 = load ptr, ptr %4, align 8
  %63 = getelementptr inbounds nuw %struct.SDL_WindowData, ptr %62, i32 0, i32 42
  %64 = getelementptr inbounds nuw %struct.anon.20, ptr %63, i32 0, i32 1
  %65 = load i32, ptr %64, align 4
  call void @zwp_text_input_v3_set_content_type(ptr noundef %57, i32 noundef %61, i32 noundef %65)
  %66 = load ptr, ptr %4, align 8
  %67 = getelementptr inbounds nuw %struct.SDL_WindowData, ptr %66, i32 0, i32 0
  %68 = load ptr, ptr %67, align 8
  %69 = getelementptr inbounds nuw %struct.SDL_Window, ptr %68, i32 0, i32 49
  %70 = call zeroext i1 @SDL_RectEmpty(ptr noundef %69)
  br i1 %70, label %107, label %71

71:                                               ; preds = %46
  %72 = load ptr, ptr %3, align 8
  %73 = getelementptr inbounds nuw %struct.SDL_WaylandSeat, ptr %72, i32 0, i32 11
  %74 = getelementptr inbounds nuw %struct.anon.8, ptr %73, i32 0, i32 1
  %75 = load ptr, ptr %4, align 8
  %76 = getelementptr inbounds nuw %struct.SDL_WindowData, ptr %75, i32 0, i32 0
  %77 = load ptr, ptr %76, align 8
  %78 = getelementptr inbounds nuw %struct.SDL_Window, ptr %77, i32 0, i32 49
  call void @llvm.memcpy.p0.p0.i64(ptr align 8 %74, ptr align 4 %78, i64 16, i1 false)
  %79 = load ptr, ptr %3, align 8
  %80 = getelementptr inbounds nuw %struct.SDL_WaylandSeat, ptr %79, i32 0, i32 11
  %81 = getelementptr inbounds nuw %struct.anon.8, ptr %80, i32 0, i32 0
  %82 = load ptr, ptr %81, align 8
  %83 = load ptr, ptr %4, align 8
  %84 = getelementptr inbounds nuw %struct.SDL_WindowData, ptr %83, i32 0, i32 0
  %85 = load ptr, ptr %84, align 8
  %86 = getelementptr inbounds nuw %struct.SDL_Window, ptr %85, i32 0, i32 49
  %87 = getelementptr inbounds nuw %struct.SDL_Rect, ptr %86, i32 0, i32 0
  %88 = load i32, ptr %87, align 4
  %89 = load ptr, ptr %4, align 8
  %90 = getelementptr inbounds nuw %struct.SDL_WindowData, ptr %89, i32 0, i32 0
  %91 = load ptr, ptr %90, align 8
  %92 = getelementptr inbounds nuw %struct.SDL_Window, ptr %91, i32 0, i32 49
  %93 = getelementptr inbounds nuw %struct.SDL_Rect, ptr %92, i32 0, i32 1
  %94 = load i32, ptr %93, align 4
  %95 = load ptr, ptr %4, align 8
  %96 = getelementptr inbounds nuw %struct.SDL_WindowData, ptr %95, i32 0, i32 0
  %97 = load ptr, ptr %96, align 8
  %98 = getelementptr inbounds nuw %struct.SDL_Window, ptr %97, i32 0, i32 49
  %99 = getelementptr inbounds nuw %struct.SDL_Rect, ptr %98, i32 0, i32 2
  %100 = load i32, ptr %99, align 4
  %101 = load ptr, ptr %4, align 8
  %102 = getelementptr inbounds nuw %struct.SDL_WindowData, ptr %101, i32 0, i32 0
  %103 = load ptr, ptr %102, align 8
  %104 = getelementptr inbounds nuw %struct.SDL_Window, ptr %103, i32 0, i32 49
  %105 = getelementptr inbounds nuw %struct.SDL_Rect, ptr %104, i32 0, i32 3
  %106 = load i32, ptr %105, align 4
  call void @zwp_text_input_v3_set_cursor_rectangle(ptr noundef %82, i32 noundef %88, i32 noundef %94, i32 noundef %100, i32 noundef %106)
  br label %107

107:                                              ; preds = %71, %46
  %108 = load ptr, ptr %3, align 8
  %109 = getelementptr inbounds nuw %struct.SDL_WaylandSeat, ptr %108, i32 0, i32 11
  %110 = getelementptr inbounds nuw %struct.anon.8, ptr %109, i32 0, i32 0
  %111 = load ptr, ptr %110, align 8
  call void @zwp_text_input_v3_commit(ptr noundef %111)
  %112 = load ptr, ptr %3, align 8
  %113 = getelementptr inbounds nuw %struct.SDL_WaylandSeat, ptr %112, i32 0, i32 8
  %114 = getelementptr inbounds nuw %struct.anon.2, ptr %113, i32 0, i32 11
  %115 = getelementptr inbounds nuw %struct.anon.3, ptr %114, i32 0, i32 3
  %116 = load ptr, ptr %115, align 8
  %117 = icmp ne ptr %116, null
  br i1 %117, label %118, label %125

118:                                              ; preds = %107
  %119 = load ptr, ptr @WAYLAND_xkb_compose_state_reset, align 8
  %120 = load ptr, ptr %3, align 8
  %121 = getelementptr inbounds nuw %struct.SDL_WaylandSeat, ptr %120, i32 0, i32 8
  %122 = getelementptr inbounds nuw %struct.anon.2, ptr %121, i32 0, i32 11
  %123 = getelementptr inbounds nuw %struct.anon.3, ptr %122, i32 0, i32 3
  %124 = load ptr, ptr %123, align 8
  call void %119(ptr noundef %124)
  br label %125

125:                                              ; preds = %118, %107
  br label %126

126:                                              ; preds = %125, %40
  br label %163

127:                                              ; preds = %34, %31
  %128 = load ptr, ptr %3, align 8
  %129 = getelementptr inbounds nuw %struct.SDL_WaylandSeat, ptr %128, i32 0, i32 11
  %130 = getelementptr inbounds nuw %struct.anon.8, ptr %129, i32 0, i32 2
  %131 = load i8, ptr %130, align 8, !range !3, !noundef !4
  %132 = trunc i8 %131 to i1
  br i1 %132, label %133, label %148

133:                                              ; preds = %127
  %134 = load ptr, ptr %3, align 8
  %135 = getelementptr inbounds nuw %struct.SDL_WaylandSeat, ptr %134, i32 0, i32 11
  %136 = getelementptr inbounds nuw %struct.anon.8, ptr %135, i32 0, i32 2
  store i8 0, ptr %136, align 8
  %137 = load ptr, ptr %3, align 8
  %138 = getelementptr inbounds nuw %struct.SDL_WaylandSeat, ptr %137, i32 0, i32 11
  %139 = getelementptr inbounds nuw %struct.anon.8, ptr %138, i32 0, i32 1
  call void @llvm.memset.p0.i64(ptr align 8 %139, i8 0, i64 16, i1 false)
  %140 = load ptr, ptr %3, align 8
  %141 = getelementptr inbounds nuw %struct.SDL_WaylandSeat, ptr %140, i32 0, i32 11
  %142 = getelementptr inbounds nuw %struct.anon.8, ptr %141, i32 0, i32 0
  %143 = load ptr, ptr %142, align 8
  call void @zwp_text_input_v3_disable(ptr noundef %143)
  %144 = load ptr, ptr %3, align 8
  %145 = getelementptr inbounds nuw %struct.SDL_WaylandSeat, ptr %144, i32 0, i32 11
  %146 = getelementptr inbounds nuw %struct.anon.8, ptr %145, i32 0, i32 0
  %147 = load ptr, ptr %146, align 8
  call void @zwp_text_input_v3_commit(ptr noundef %147)
  br label %148

148:                                              ; preds = %133, %127
  %149 = load ptr, ptr %3, align 8
  %150 = getelementptr inbounds nuw %struct.SDL_WaylandSeat, ptr %149, i32 0, i32 8
  %151 = getelementptr inbounds nuw %struct.anon.2, ptr %150, i32 0, i32 11
  %152 = getelementptr inbounds nuw %struct.anon.3, ptr %151, i32 0, i32 3
  %153 = load ptr, ptr %152, align 8
  %154 = icmp ne ptr %153, null
  br i1 %154, label %155, label %162

155:                                              ; preds = %148
  %156 = load ptr, ptr @WAYLAND_xkb_compose_state_reset, align 8
  %157 = load ptr, ptr %3, align 8
  %158 = getelementptr inbounds nuw %struct.SDL_WaylandSeat, ptr %157, i32 0, i32 8
  %159 = getelementptr inbounds nuw %struct.anon.2, ptr %158, i32 0, i32 11
  %160 = getelementptr inbounds nuw %struct.anon.3, ptr %159, i32 0, i32 3
  %161 = load ptr, ptr %160, align 8
  call void %156(ptr noundef %161)
  br label %162

162:                                              ; preds = %155, %148
  br label %163

163:                                              ; preds = %162, %126
  br label %164

164:                                              ; preds = %163, %21
  call void @llvm.lifetime.end.p0(i64 8, ptr %4) #7
  br label %165

165:                                              ; preds = %164
  %166 = load ptr, ptr %3, align 8
  %167 = getelementptr inbounds nuw %struct.SDL_WaylandSeat, ptr %166, i32 0, i32 5
  %168 = getelementptr inbounds nuw %struct.wl_list, ptr %167, i32 0, i32 1
  %169 = load ptr, ptr %168, align 8
  %170 = getelementptr inbounds i8, ptr %169, i64 -40
  store ptr %170, ptr %3, align 8
  br label %15, !llvm.loop !5

171:                                              ; preds = %15
  br label %172

172:                                              ; preds = %171, %1
  call void @llvm.lifetime.end.p0(i64 8, ptr %3) #7
  ret void
}