; Function Attrs: nounwind uwtable
define hidden void @Wayland_UpdateTextInput(ptr noundef readonly captures(address) %0) local_unnamed_addr #0 {
  %2 = getelementptr inbounds nuw i8, ptr %0, i64 144
  %3 = load ptr, ptr %2, align 8
  %.not = icmp eq ptr %3, null
  br i1 %.not, label %.loopexit, label %4

4:                                                ; preds = %1
  %5 = getelementptr inbounds nuw i8, ptr %0, i64 248
  %6 = getelementptr inbounds nuw i8, ptr %0, i64 256
  %.pn42 = load ptr, ptr %6, align 8
  %.not3743 = icmp eq ptr %.pn42, %5
  br i1 %.not3743, label %.loopexit, label %.lr.ph

.lr.ph:                                           ; preds = %4, %84
  %.pn44 = phi ptr [ %.pn, %84 ], [ %.pn42, %4 ]
  %7 = getelementptr inbounds nuw i8, ptr %.pn44, i64 48
  %8 = load ptr, ptr %7, align 8
  %9 = getelementptr inbounds nuw i8, ptr %.pn44, i64 448
  %10 = load ptr, ptr %9, align 8
  %.not38 = icmp eq ptr %10, null
  br i1 %.not38, label %84, label %11

11:                                               ; preds = %.lr.ph
  %.not39 = icmp eq ptr %8, null
  br i1 %.not39, label %65, label %12

12:                                               ; preds = %11
  %13 = getelementptr inbounds nuw i8, ptr %8, i64 352
  %14 = getelementptr inbounds nuw i8, ptr %8, i64 360
  %15 = load i8, ptr %14, align 8, !range !3, !noundef !4
  %16 = trunc nuw i8 %15 to i1
  br i1 %16, label %17, label %65

17:                                               ; preds = %12
  %18 = getelementptr inbounds nuw i8, ptr %.pn44, i64 472
  %19 = load i8, ptr %18, align 8, !range !3, !noundef !4
  %20 = trunc nuw i8 %19 to i1
  br i1 %20, label %84, label %21

21:                                               ; preds = %17
  store i8 1, ptr %18, align 8
  %22 = load ptr, ptr @WAYLAND_wl_proxy_marshal_flags, align 8
  %23 = load ptr, ptr @WAYLAND_wl_proxy_get_version, align 8
  %24 = tail call i32 %23(ptr noundef nonnull %10) #5
  %25 = tail call ptr (ptr, i32, ptr, i32, i32, ...) %22(ptr noundef nonnull %10, i32 noundef 1, ptr noundef null, i32 noundef %24, i32 noundef 0) #5
  %26 = load ptr, ptr %9, align 8
  %27 = load i32, ptr %13, align 8
  %28 = getelementptr inbounds nuw i8, ptr %8, i64 356
  %29 = load i32, ptr %28, align 4
  %30 = load ptr, ptr @WAYLAND_wl_proxy_marshal_flags, align 8
  %31 = load ptr, ptr @WAYLAND_wl_proxy_get_version, align 8
  %32 = tail call i32 %31(ptr noundef %26) #5
  %33 = tail call ptr (ptr, i32, ptr, i32, i32, ...) %30(ptr noundef %26, i32 noundef 5, ptr noundef null, i32 noundef %32, i32 noundef 0, i32 noundef %27, i32 noundef %29) #5
  %34 = load ptr, ptr %8, align 8
  %35 = getelementptr inbounds nuw i8, ptr %34, i64 316
  %36 = getelementptr inbounds nuw i8, ptr %34, i64 324
  %37 = load i32, ptr %36, align 4
  %38 = icmp slt i32 %37, 1
  br i1 %38, label %SDL_RectEmpty.exit.thread, label %SDL_RectEmpty.exit

SDL_RectEmpty.exit:                               ; preds = %21
  %39 = getelementptr inbounds nuw i8, ptr %34, i64 328
  %40 = load i32, ptr %39, align 4
  %41 = icmp slt i32 %40, 1
  br i1 %41, label %SDL_RectEmpty.exit.thread, label %42

42:                                               ; preds = %SDL_RectEmpty.exit
  %43 = getelementptr inbounds nuw i8, ptr %.pn44, i64 456
  tail call void @llvm.memcpy.p0.p0.i64(ptr noundef nonnull align 8 dereferenceable(16) %43, ptr noundef nonnull align 4 dereferenceable(16) %35, i64 16, i1 false)
  %44 = load ptr, ptr %9, align 8
  %45 = load ptr, ptr %8, align 8
  %46 = getelementptr inbounds nuw i8, ptr %45, i64 316
  %47 = load i32, ptr %46, align 4
  %48 = getelementptr inbounds nuw i8, ptr %45, i64 320
  %49 = load i32, ptr %48, align 4
  %50 = getelementptr inbounds nuw i8, ptr %45, i64 324
  %51 = load i32, ptr %50, align 4
  %52 = getelementptr inbounds nuw i8, ptr %45, i64 328
  %53 = load i32, ptr %52, align 4
  %54 = load ptr, ptr @WAYLAND_wl_proxy_marshal_flags, align 8
  %55 = load ptr, ptr @WAYLAND_wl_proxy_get_version, align 8
  %56 = tail call i32 %55(ptr noundef %44) #5
  %57 = tail call ptr (ptr, i32, ptr, i32, i32, ...) %54(ptr noundef %44, i32 noundef 6, ptr noundef null, i32 noundef %56, i32 noundef 0, i32 noundef %47, i32 noundef %49, i32 noundef %51, i32 noundef %53) #5
  br label %SDL_RectEmpty.exit.thread

SDL_RectEmpty.exit.thread:                        ; preds = %21, %42, %SDL_RectEmpty.exit
  %58 = load ptr, ptr %9, align 8
  %59 = load ptr, ptr @WAYLAND_wl_proxy_marshal_flags, align 8
  %60 = load ptr, ptr @WAYLAND_wl_proxy_get_version, align 8
  %61 = tail call i32 %60(ptr noundef %58) #5
  %62 = tail call ptr (ptr, i32, ptr, i32, i32, ...) %59(ptr noundef %58, i32 noundef 7, ptr noundef null, i32 noundef %61, i32 noundef 0) #5
  %63 = getelementptr inbounds nuw i8, ptr %.pn44, i64 176
  %64 = load ptr, ptr %63, align 8
  %.not41 = icmp eq ptr %64, null
  br i1 %.not41, label %84, label %.sink.split

65:                                               ; preds = %12, %11
  %66 = getelementptr inbounds nuw i8, ptr %.pn44, i64 472
  %67 = load i8, ptr %66, align 8, !range !3, !noundef !4
  %68 = trunc nuw i8 %67 to i1
  br i1 %68, label %69, label %80

69:                                               ; preds = %65
  %70 = getelementptr inbounds nuw i8, ptr %.pn44, i64 456
  tail call void @llvm.memset.p0.i64(ptr noundef nonnull align 8 dereferenceable(17) %70, i8 0, i64 17, i1 false)
  %71 = load ptr, ptr @WAYLAND_wl_proxy_marshal_flags, align 8
  %72 = load ptr, ptr @WAYLAND_wl_proxy_get_version, align 8
  %73 = tail call i32 %72(ptr noundef nonnull %10) #5
  %74 = tail call ptr (ptr, i32, ptr, i32, i32, ...) %71(ptr noundef nonnull %10, i32 noundef 2, ptr noundef null, i32 noundef %73, i32 noundef 0) #5
  %75 = load ptr, ptr %9, align 8
  %76 = load ptr, ptr @WAYLAND_wl_proxy_marshal_flags, align 8
  %77 = load ptr, ptr @WAYLAND_wl_proxy_get_version, align 8
  %78 = tail call i32 %77(ptr noundef %75) #5
  %79 = tail call ptr (ptr, i32, ptr, i32, i32, ...) %76(ptr noundef %75, i32 noundef 7, ptr noundef null, i32 noundef %78, i32 noundef 0) #5
  br label %80

80:                                               ; preds = %69, %65
  %81 = getelementptr inbounds nuw i8, ptr %.pn44, i64 176
  %82 = load ptr, ptr %81, align 8
  %.not40 = icmp eq ptr %82, null
  br i1 %.not40, label %84, label %.sink.split

.sink.split:                                      ; preds = %80, %SDL_RectEmpty.exit.thread
  %.sink = phi ptr [ %64, %SDL_RectEmpty.exit.thread ], [ %82, %80 ]
  %83 = load ptr, ptr @WAYLAND_xkb_compose_state_reset, align 8
  tail call void %83(ptr noundef nonnull %.sink) #5
  br label %84

84:                                               ; preds = %.sink.split, %SDL_RectEmpty.exit.thread, %17, %80, %.lr.ph
  %85 = getelementptr inbounds nuw i8, ptr %.pn44, i64 8
  %.pn = load ptr, ptr %85, align 8
  %.not37 = icmp eq ptr %.pn, %5
  br i1 %.not37, label %.loopexit, label %.lr.ph, !llvm.loop !5

.loopexit:                                        ; preds = %84, %4, %1
  ret void
}